; Function Attrs: mustprogress nofree nosync nounwind willreturn memory(read, inaccessiblemem: none) uwtable
define dso_local noundef zeroext i1 @_ZNK4Type11has_paddingEv(ptr nocapture noundef nonnull readonly align 8 dereferenceable(136) %0) local_unnamed_addr #8 align 2 {
  %2 = load i32, ptr %0, align 8
  %3 = icmp eq i32 %2, 3
  br i1 %3, label %4, label %8

4:                                                ; preds = %1
  %5 = getelementptr inbounds i8, ptr %0, i64 78
  %6 = load i8, ptr %5, align 2
  %7 = and i8 %6, 1
  %.not = icmp eq i8 %7, 0
  br i1 %.not, label %.loopexit, label %8

8:                                                ; preds = %4, %1
  %9 = getelementptr inbounds i8, ptr %0, i64 48
  %10 = getelementptr inbounds i8, ptr %0, i64 56
  %11 = load ptr, ptr %10, align 8
  %12 = load ptr, ptr %9, align 8
  %.not11 = icmp eq ptr %11, %12
  br i1 %.not11, label %.loopexit, label %.lr.ph

.lr.ph:                                           ; preds = %8
  %13 = ptrtoint ptr %11 to i64
  %14 = ptrtoint ptr %12 to i64
  %15 = sub i64 %13, %14
  %16 = ashr exact i64 %15, 3
  %17 = getelementptr inbounds i8, ptr %0, i64 112
  %18 = load ptr, ptr %17, align 8
  %umax = tail call i64 @llvm.umax.i64(i64 %16, i64 1)
  br label %21

19:                                               ; preds = %25
  %20 = add nuw i64 %.06, 1
  %exitcond.not = icmp eq i64 %20, %umax
  br i1 %exitcond.not, label %.loopexit, label %21, !llvm.loop !43

21:                                               ; preds = %.lr.ph, %19
  %.06 = phi i64 [ 0, %.lr.ph ], [ %20, %19 ]
  %22 = getelementptr inbounds i32, ptr %18, i64 %.06
  %23 = load i32, ptr %22, align 4
  %24 = icmp sgt i32 %23, -1
  br i1 %24, label %.loopexit, label %25

25:                                               ; preds = %21
  %26 = getelementptr inbounds ptr, ptr %12, i64 %.06
  %27 = load ptr, ptr %26, align 8
  %28 = tail call noundef zeroext i1 @_ZNK4Type11has_paddingEv(ptr noundef nonnull align 8 dereferenceable(136) %27)
  br i1 %28, label %.loopexit, label %19

.loopexit:                                        ; preds = %25, %21, %19, %8, %4
  %.05 = phi i1 [ true, %4 ], [ false, %8 ], [ true, %25 ], [ true, %21 ], [ false, %19 ]
  ret i1 %.05
}